; Function Attrs: mustprogress uwtable
define hidden noundef ptr @_ZN12old_interval4joinEPN18dependency_managerIN25scoped_dependency_managerIPvE6configEE10dependencyES7_S7_S7_(ptr noundef nonnull readonly align 8 captures(none) dereferenceable(112) %0, ptr noundef %1, ptr noundef %2, ptr noundef %3, ptr noundef %4) local_unnamed_addr #3 align 2 {
  %6 = load ptr, ptr %0, align 8, !tbaa !41
  %7 = icmp eq ptr %1, null
  br i1 %7, label %_ZN25scoped_dependency_managerIPvE7mk_joinEPN18dependency_managerINS1_6configEE10dependencyES6_.exit, label %8

8:                                                ; preds = %5
  %9 = icmp eq ptr %2, null
  %10 = icmp eq ptr %1, %2
  %or.cond.i.i = or i1 %9, %10
  br i1 %or.cond.i.i, label %_ZN25scoped_dependency_managerIPvE7mk_joinEPN18dependency_managerINS1_6configEE10dependencyES6_.exit, label %_ZN18dependency_managerIN25scoped_dependency_managerIPvE6configEE7inc_refEPNS4_10dependencyE.exit17.i.i

_ZN18dependency_managerIN25scoped_dependency_managerIPvE6configEE7inc_refEPNS4_10dependencyE.exit17.i.i: ; preds = %8
  %11 = getelementptr inbounds nuw i8, ptr %6, i64 56
  %12 = load ptr, ptr %11, align 8, !tbaa !42
  %13 = tail call noundef ptr @_ZN6region8allocateEm(ptr noundef nonnull align 8 dereferenceable(40) %12, i64 noundef 24)
  %14 = load i32, ptr %1, align 4
  %15 = add i32 %14, 1
  %16 = and i32 %15, 1073741823
  %17 = and i32 %14, -1073741824
  %18 = or disjoint i32 %16, %17
  store i32 %18, ptr %1, align 4
  %19 = load i32, ptr %2, align 4
  %20 = add i32 %19, 1
  %21 = and i32 %20, 1073741823
  %22 = and i32 %19, -1073741824
  %23 = or disjoint i32 %21, %22
  store i32 %23, ptr %2, align 4
  store i32 0, ptr %13, align 4
  %24 = getelementptr inbounds nuw i8, ptr %13, i64 8
  store ptr %1, ptr %24, align 8, !tbaa !50
  %25 = getelementptr inbounds nuw i8, ptr %13, i64 16
  store ptr %2, ptr %25, align 8, !tbaa !50
  %.pre = load ptr, ptr %0, align 8, !tbaa !41
  br label %_ZN25scoped_dependency_managerIPvE7mk_joinEPN18dependency_managerINS1_6configEE10dependencyES6_.exit

_ZN25scoped_dependency_managerIPvE7mk_joinEPN18dependency_managerINS1_6configEE10dependencyES6_.exit: ; preds = %5, %8, %_ZN18dependency_managerIN25scoped_dependency_managerIPvE6configEE7inc_refEPNS4_10dependencyE.exit17.i.i
  %26 = phi ptr [ %.pre, %_ZN18dependency_managerIN25scoped_dependency_managerIPvE6configEE7inc_refEPNS4_10dependencyE.exit17.i.i ], [ %6, %5 ], [ %6, %8 ]
  %.0.i.i = phi ptr [ %13, %_ZN18dependency_managerIN25scoped_dependency_managerIPvE6configEE7inc_refEPNS4_10dependencyE.exit17.i.i ], [ %2, %5 ], [ %1, %8 ]
  %27 = icmp eq ptr %3, null
  br i1 %27, label %_ZN25scoped_dependency_managerIPvE7mk_joinEPN18dependency_managerINS1_6configEE10dependencyES6_.exit8, label %28

28:                                               ; preds = %_ZN25scoped_dependency_managerIPvE7mk_joinEPN18dependency_managerINS1_6configEE10dependencyES6_.exit
  %29 = icmp eq ptr %4, null
  %30 = icmp eq ptr %3, %4
  %or.cond.i.i5 = or i1 %29, %30
  br i1 %or.cond.i.i5, label %_ZN25scoped_dependency_managerIPvE7mk_joinEPN18dependency_managerINS1_6configEE10dependencyES6_.exit8, label %_ZN18dependency_managerIN25scoped_dependency_managerIPvE6configEE7inc_refEPNS4_10dependencyE.exit17.i.i6

_ZN18dependency_managerIN25scoped_dependency_managerIPvE6configEE7inc_refEPNS4_10dependencyE.exit17.i.i6: ; preds = %28
  %31 = getelementptr inbounds nuw i8, ptr %26, i64 56
  %32 = load ptr, ptr %31, align 8, !tbaa !42
  %33 = tail call noundef ptr @_ZN6region8allocateEm(ptr noundef nonnull align 8 dereferenceable(40) %32, i64 noundef 24)
  %34 = load i32, ptr %3, align 4
  %35 = add i32 %34, 1
  %36 = and i32 %35, 1073741823
  %37 = and i32 %34, -1073741824
  %38 = or disjoint i32 %36, %37
  store i32 %38, ptr %3, align 4
  %39 = load i32, ptr %4, align 4
  %40 = add i32 %39, 1
  %41 = and i32 %40, 1073741823
  %42 = and i32 %39, -1073741824
  %43 = or disjoint i32 %41, %42
  store i32 %43, ptr %4, align 4
  store i32 0, ptr %33, align 4
  %44 = getelementptr inbounds nuw i8, ptr %33, i64 8
  store ptr %3, ptr %44, align 8, !tbaa !50
  %45 = getelementptr inbounds nuw i8, ptr %33, i64 16
  store ptr %4, ptr %45, align 8, !tbaa !50
  br label %_ZN25scoped_dependency_managerIPvE7mk_joinEPN18dependency_managerINS1_6configEE10dependencyES6_.exit8

_ZN25scoped_dependency_managerIPvE7mk_joinEPN18dependency_managerINS1_6configEE10dependencyES6_.exit8: ; preds = %_ZN25scoped_dependency_managerIPvE7mk_joinEPN18dependency_managerINS1_6configEE10dependencyES6_.exit, %28, %_ZN18dependency_managerIN25scoped_dependency_managerIPvE6configEE7inc_refEPNS4_10dependencyE.exit17.i.i6
  %.0.i.i7 = phi ptr [ %33, %_ZN18dependency_managerIN25scoped_dependency_managerIPvE6configEE7inc_refEPNS4_10dependencyE.exit17.i.i6 ], [ %4, %_ZN25scoped_dependency_managerIPvE7mk_joinEPN18dependency_managerINS1_6configEE10dependencyES6_.exit ], [ %3, %28 ]
  %46 = icmp eq ptr %.0.i.i, null
  br i1 %46, label %_ZN25scoped_dependency_managerIPvE7mk_joinEPN18dependency_managerINS1_6configEE10dependencyES6_.exit12, label %47

47:                                               ; preds = %_ZN25scoped_dependency_managerIPvE7mk_joinEPN18dependency_managerINS1_6configEE10dependencyES6_.exit8
  %48 = icmp eq ptr %.0.i.i7, null
  %49 = icmp eq ptr %.0.i.i, %.0.i.i7
  %or.cond.i.i9 = or i1 %48, %49
  br i1 %or.cond.i.i9, label %_ZN25scoped_dependency_managerIPvE7mk_joinEPN18dependency_managerINS1_6configEE10dependencyES6_.exit12, label %_ZN18dependency_managerIN25scoped_dependency_managerIPvE6configEE7inc_refEPNS4_10dependencyE.exit17.i.i10

_ZN18dependency_managerIN25scoped_dependency_managerIPvE6configEE7inc_refEPNS4_10dependencyE.exit17.i.i10: ; preds = %47
  %50 = getelementptr inbounds nuw i8, ptr %6, i64 56
  %51 = load ptr, ptr %50, align 8, !tbaa !42
  %52 = tail call noundef ptr @_ZN6region8allocateEm(ptr noundef nonnull align 8 dereferenceable(40) %51, i64 noundef 24)
  %53 = load i32, ptr %.0.i.i, align 4
  %54 = add i32 %53, 1
  %55 = and i32 %54, 1073741823
  %56 = and i32 %53, -1073741824
  %57 = or disjoint i32 %55, %56
  store i32 %57, ptr %.0.i.i, align 4
  %58 = load i32, ptr %.0.i.i7, align 4
  %59 = add i32 %58, 1
  %60 = and i32 %59, 1073741823
  %61 = and i32 %58, -1073741824
  %62 = or disjoint i32 %60, %61
  store i32 %62, ptr %.0.i.i7, align 4
  store i32 0, ptr %52, align 4
  %63 = getelementptr inbounds nuw i8, ptr %52, i64 8
  store ptr %.0.i.i, ptr %63, align 8, !tbaa !50
  %64 = getelementptr inbounds nuw i8, ptr %52, i64 16
  store ptr %.0.i.i7, ptr %64, align 8, !tbaa !50
  br label %_ZN25scoped_dependency_managerIPvE7mk_joinEPN18dependency_managerINS1_6configEE10dependencyES6_.exit12

_ZN25scoped_dependency_managerIPvE7mk_joinEPN18dependency_managerINS1_6configEE10dependencyES6_.exit12: ; preds = %_ZN25scoped_dependency_managerIPvE7mk_joinEPN18dependency_managerINS1_6configEE10dependencyES6_.exit8, %47, %_ZN18dependency_managerIN25scoped_dependency_managerIPvE6configEE7inc_refEPNS4_10dependencyE.exit17.i.i10
  %.0.i.i11 = phi ptr [ %52, %_ZN18dependency_managerIN25scoped_dependency_managerIPvE6configEE7inc_refEPNS4_10dependencyE.exit17.i.i10 ], [ %.0.i.i7, %_ZN25scoped_dependency_managerIPvE7mk_joinEPN18dependency_managerINS1_6configEE10dependencyES6_.exit8 ], [ %.0.i.i, %47 ]
  ret ptr %.0.i.i11
}